target datalayout = "e-m:e-p270:32:32-p271:32:32-p272:64:64-i64:64-i128:128-f80:128-n8:16:32:64-S128"
target triple = "x86_64-pc-linux-gnu"

%"struct.std::nothrow_t" = type { i8 }
%struct.PROJ_CRS_LIST_PARAMETERS = type { ptr, i64, i32, i32, double, double, double, double, i32, ptr }

@_ZSt7nothrow = external global %"struct.std::nothrow_t", align 1

; Function Attrs: mustprogress nounwind uwtable
define ptr @proj_get_crs_list_parameters_create() #0 {
  %1 = alloca ptr, align 8
  %2 = alloca i1, align 1
  %3 = call noalias noundef ptr @_ZnwmRKSt9nothrow_t(i64 noundef 72, ptr noundef nonnull align 1 dereferenceable(1) @_ZSt7nothrow) #25
  %4 = icmp eq ptr %3, null
  store i1 false, ptr %2, align 1
  br i1 %4, label %6, label %5

5:                                                ; preds = %0
  store i1 true, ptr %2, align 1
  call void @llvm.memset.p0.i64(ptr align 16 %3, i8 0, i64 72, i1 false)
  br label %6

6:                                                ; preds = %5, %0
  %7 = phi ptr [ %3, %5 ], [ null, %0 ]
  store ptr %7, ptr %1, align 8
  %8 = load ptr, ptr %1, align 8
  %9 = icmp ne ptr %8, null
  br i1 %9, label %10, label %31

10:                                               ; preds = %6
  %11 = load ptr, ptr %1, align 8
  %12 = getelementptr inbounds %struct.PROJ_CRS_LIST_PARAMETERS, ptr %11, i32 0, i32 0
  store ptr null, ptr %12, align 8
  %13 = load ptr, ptr %1, align 8
  %14 = getelementptr inbounds %struct.PROJ_CRS_LIST_PARAMETERS, ptr %13, i32 0, i32 1
  store i64 0, ptr %14, align 8
  %15 = load ptr, ptr %1, align 8
  %16 = getelementptr inbounds %struct.PROJ_CRS_LIST_PARAMETERS, ptr %15, i32 0, i32 2
  store i32 1, ptr %16, align 8
  %17 = load ptr, ptr %1, align 8
  %18 = getelementptr inbounds %struct.PROJ_CRS_LIST_PARAMETERS, ptr %17, i32 0, i32 3
  store i32 0, ptr %18, align 4
  %19 = load ptr, ptr %1, align 8
  %20 = getelementptr inbounds %struct.PROJ_CRS_LIST_PARAMETERS, ptr %19, i32 0, i32 4
  store double 0.000000e+00, ptr %20, align 8
  %21 = load ptr, ptr %1, align 8
  %22 = getelementptr inbounds %struct.PROJ_CRS_LIST_PARAMETERS, ptr %21, i32 0, i32 5
  store double 0.000000e+00, ptr %22, align 8
  %23 = load ptr, ptr %1, align 8
  %24 = getelementptr inbounds %struct.PROJ_CRS_LIST_PARAMETERS, ptr %23, i32 0, i32 6
  store double 0.000000e+00, ptr %24, align 8
  %25 = load ptr, ptr %1, align 8
  %26 = getelementptr inbounds %struct.PROJ_CRS_LIST_PARAMETERS, ptr %25, i32 0, i32 7
  store double 0.000000e+00, ptr %26, align 8
  %27 = load ptr, ptr %1, align 8
  %28 = getelementptr inbounds %struct.PROJ_CRS_LIST_PARAMETERS, ptr %27, i32 0, i32 8
  store i32 0, ptr %28, align 8
  %29 = load ptr, ptr %1, align 8
  %30 = getelementptr inbounds %struct.PROJ_CRS_LIST_PARAMETERS, ptr %29, i32 0, i32 9
  store ptr null, ptr %30, align 8
  br label %31

31:                                               ; preds = %10, %6
  %32 = load ptr, ptr %1, align 8
  ret ptr %32
}