; Function Attrs: mustprogress nounwind uwtable
define noalias noundef ptr @proj_get_crs_list_parameters_create() local_unnamed_addr #0 {
  %1 = tail call noalias noundef dereferenceable_or_null(72) ptr @_ZnwmRKSt9nothrow_t(i64 noundef 72, ptr noundef nonnull align 1 dereferenceable(1) @_ZSt7nothrow) #34
  %2 = icmp eq ptr %1, null
  br i1 %2, label %.thread, label %3

3:                                                ; preds = %0
  %4 = getelementptr inbounds i8, ptr %1, i64 16
  tail call void @llvm.memset.p0.i64(ptr noundef nonnull align 8 dereferenceable(64) %1, i8 0, i64 64, i1 false)
  store i32 1, ptr %4, align 8
  %5 = getelementptr inbounds i8, ptr %1, i64 20
  %6 = getelementptr inbounds i8, ptr %1, i64 64
  store ptr null, ptr %6, align 8
  tail call void @llvm.memset.p0.i64(ptr noundef nonnull align 4 dereferenceable(40) %5, i8 0, i64 40, i1 false)
  br label %.thread

.thread:                                          ; preds = %0, %3
  ret ptr %1
}